; Function Attrs: mustprogress nounwind uwtable
define internal void @_ZNSt23_Sp_counted_ptr_inplaceIN12_GLOBAL__N_117BlockMeanHashImplESaIvELN9__gnu_cxx12_Lock_policyE2EE10_M_disposeEv(ptr noundef nonnull align 8 dereferenceable(248) %0) unnamed_addr #7 align 2 personality ptr @__gxx_personality_v0 {
  %2 = getelementptr inbounds nuw i8, ptr %0, i64 152
  tail call void @_ZN2cv3MatD1Ev(ptr noundef nonnull align 8 dereferenceable(96) %2) #21
  %3 = getelementptr inbounds nuw i8, ptr %0, i64 120
  %4 = load ptr, ptr %3, align 8, !tbaa !53
  %.not.i.i.i.i.i.i = icmp eq ptr %4, null
  br i1 %.not.i.i.i.i.i.i, label %_ZNSt16allocator_traitsISaIvEE7destroyIN12_GLOBAL__N_117BlockMeanHashImplEEEvRS0_PT_.exit, label %5

5:                                                ; preds = %1
  tail call void @_ZdlPv(ptr noundef nonnull %4) #24
  br label %_ZNSt16allocator_traitsISaIvEE7destroyIN12_GLOBAL__N_117BlockMeanHashImplEEEvRS0_PT_.exit

_ZNSt16allocator_traitsISaIvEE7destroyIN12_GLOBAL__N_117BlockMeanHashImplEEEvRS0_PT_.exit: ; preds = %1, %5
  %6 = getelementptr inbounds nuw i8, ptr %0, i64 24
  tail call void @_ZN2cv3MatD1Ev(ptr noundef nonnull align 8 dereferenceable(96) %6) #21
  ret void
}